; Function Attrs: mustprogress nofree norecurse nosync nounwind willreturn memory(read, inaccessiblemem: none) uwtable
define hidden noundef ptr @_ZN15CountedLoopNode16skip_strip_minedEi(ptr noundef nonnull readonly align 8 dereferenceable(92) %0, i32 noundef %1) unnamed_addr #3 align 2 {
  %3 = getelementptr inbounds i8, ptr %0, i64 60
  %4 = load i32, ptr %3, align 4
  %5 = and i32 %4, 4096
  %.not2 = icmp eq i32 %5, 0
  br i1 %.not2, label %16, label %6

6:                                                ; preds = %2
  %7 = getelementptr inbounds i8, ptr %0, i64 8
  %8 = load ptr, ptr %7, align 8
  %9 = getelementptr inbounds i8, ptr %8, i64 8
  %10 = load ptr, ptr %9, align 8
  %.not = icmp eq ptr %10, null
  br i1 %.not, label %16, label %11

11:                                               ; preds = %6
  %12 = getelementptr inbounds i8, ptr %10, i64 44
  %13 = load i32, ptr %12, align 4
  %14 = and i32 %13, 1023
  %15 = icmp eq i32 %14, 608
  %spec.select = select i1 %15, ptr %10, ptr %0
  br label %16

16:                                               ; preds = %11, %2, %6
  %.0 = phi ptr [ %0, %6 ], [ %0, %2 ], [ %spec.select, %11 ]
  ret ptr %.0
}